; Function Attrs: mustprogress uwtable
define hidden void @_ZN4cvc58internal16ProofRuleChecker10mkKindNodeEPNS0_11NodeManagerENS0_4kind6Kind_tE(ptr dead_on_unwind noalias writable sret(%"class.cvc5::internal::NodeTemplate") align 8 %0, ptr noundef %1, i32 noundef %2) local_unnamed_addr #3 align 2 personality ptr @__gxx_personality_v0 {
  %4 = alloca %"class.cvc5::internal::Rational", align 8
  %5 = icmp eq i32 %2, -1
  br i1 %5, label %6, label %22

6:                                                ; preds = %3
  tail call void @llvm.experimental.noalias.scope.decl(metadata !37)
  %7 = load ptr, ptr @_ZN4cvc58internal12NodeTemplateILb1EE6s_nullE, align 8, !tbaa !40, !noalias !37
  store ptr %7, ptr %0, align 8, !tbaa !40, !alias.scope !37
  %8 = load i64, ptr %7, align 8, !noalias !37
  %9 = lshr i64 %8, 40
  %10 = trunc nuw nsw i64 %9 to i32
  %11 = and i32 %10, 1048575
  %12 = icmp samesign ult i32 %11, 1048574
  br i1 %12, label %13, label %18, !prof !42

13:                                               ; preds = %6
  %14 = add i64 %8, 1099511627776
  %15 = and i64 %14, 1152920405095219200
  %16 = and i64 %8, -1152920405095219201
  %17 = or disjoint i64 %15, %16
  store i64 %17, ptr %7, align 8, !noalias !37
  br label %_ZN4cvc58internal12NodeTemplateILb1EE4nullEv.exit

18:                                               ; preds = %6
  %19 = icmp eq i32 %11, 1048574
  br i1 %19, label %20, label %_ZN4cvc58internal12NodeTemplateILb1EE4nullEv.exit, !prof !21

20:                                               ; preds = %18
  %21 = or i64 %8, 1152920405095219200
  store i64 %21, ptr %7, align 8, !noalias !37
  tail call void @_ZN4cvc58internal4expr9NodeValue20markRefCountMaxedOutEv(ptr noundef nonnull align 8 dereferenceable(24) %7), !noalias !37
  br label %_ZN4cvc58internal12NodeTemplateILb1EE4nullEv.exit

22:                                               ; preds = %3
  call void @llvm.lifetime.start.p0(i64 32, ptr nonnull %4) #18
  call void @_ZN4cvc58internal8RationalC2Ej(ptr noundef nonnull align 8 dereferenceable(32) %4, i32 noundef %2)
  invoke void @_ZN4cvc58internal11NodeManager10mkConstIntERKNS0_8RationalE(ptr dead_on_unwind writable sret(%"class.cvc5::internal::NodeTemplate") align 8 %0, ptr noundef nonnull align 8 dereferenceable(3560) %1, ptr noundef nonnull align 8 dereferenceable(32) %4)
          to label %23 unwind label %27

23:                                               ; preds = %22
  invoke void @__gmpq_clear(ptr noundef nonnull align 8 dereferenceable(32) %4)
          to label %_ZN4cvc58internal8RationalD2Ev.exit unwind label %24

24:                                               ; preds = %23
  %25 = landingpad { ptr, i32 }
          catch ptr null
  %26 = extractvalue { ptr, i32 } %25, 0
  call void @__clang_call_terminate(ptr %26) #19
  unreachable

_ZN4cvc58internal8RationalD2Ev.exit:              ; preds = %23
  call void @llvm.lifetime.end.p0(i64 32, ptr nonnull %4) #18
  br label %_ZN4cvc58internal12NodeTemplateILb1EE4nullEv.exit

27:                                               ; preds = %22
  %28 = landingpad { ptr, i32 }
          cleanup
  invoke void @__gmpq_clear(ptr noundef nonnull align 8 dereferenceable(32) %4)
          to label %_ZN4cvc58internal8RationalD2Ev.exit4 unwind label %29

29:                                               ; preds = %27
  %30 = landingpad { ptr, i32 }
          catch ptr null
  %31 = extractvalue { ptr, i32 } %30, 0
  call void @__clang_call_terminate(ptr %31) #19
  unreachable

_ZN4cvc58internal8RationalD2Ev.exit4:             ; preds = %27
  call void @llvm.lifetime.end.p0(i64 32, ptr nonnull %4) #18
  resume { ptr, i32 } %28

_ZN4cvc58internal12NodeTemplateILb1EE4nullEv.exit: ; preds = %20, %18, %13, %_ZN4cvc58internal8RationalD2Ev.exit
  ret void
}